; Function Attrs: nounwind uwtable
define internal void @ZombieReleaseFrame(ptr noundef %0, ptr noundef %1) #1 {
  %3 = getelementptr inbounds nuw i8, ptr %1, i64 24
  %4 = load ptr, ptr %3, align 8
  %5 = getelementptr inbounds nuw i8, ptr %0, i64 424
  %6 = load ptr, ptr %5, align 8
  %.not = icmp eq ptr %4, %6
  br i1 %.not, label %9, label %7

7:                                                ; preds = %2
  %8 = load ptr, ptr getelementptr inbounds nuw (i8, ptr @camera_driver, i64 56), align 8
  tail call void %8(ptr noundef nonnull %0, ptr noundef nonnull %1) #11
  br label %9

9:                                                ; preds = %7, %2
  ret void
}